; Function Attrs: nounwind sspstrong uwtable
define internal range(i64 1, 0) i64 @ripper_lineno(i64 noundef %0) #0 {
  %2 = tail call ptr @rb_check_typeddata(i64 noundef %0, ptr noundef nonnull @parser_data_type) #5
  %3 = load ptr, ptr %2, align 8, !tbaa !18
  %4 = tail call i32 @rb_ruby_ripper_initialized_p(ptr noundef %3) #5
  %.not.i = icmp eq i32 %4, 0
  br i1 %.not.i, label %5, label %ripper_parser_params.exit

5:                                                ; preds = %1
  %6 = load i64, ptr @rb_eArgError, align 8, !tbaa !6
  tail call void (i64, ptr, ...) @rb_raise(i64 noundef %6, ptr noundef nonnull @.str.45) #6
  unreachable

ripper_parser_params.exit:                        ; preds = %1
  %7 = tail call i64 @rb_ruby_parser_parsing_thread(ptr noundef %3) #5
  %8 = icmp eq i64 %7, 4
  br i1 %8, label %14, label %9

9:                                                ; preds = %ripper_parser_params.exit
  %10 = tail call i32 @rb_ruby_parser_ruby_sourceline(ptr noundef %3) #5
  %11 = sext i32 %10 to i64
  %12 = shl nsw i64 %11, 1
  %13 = or disjoint i64 %12, 1
  br label %14

14:                                               ; preds = %ripper_parser_params.exit, %9
  %.0 = phi i64 [ %13, %9 ], [ 4, %ripper_parser_params.exit ]
  ret i64 %.0
}